target datalayout = "e-m:e-p270:32:32-p271:32:32-p272:64:64-i64:64-i128:128-f80:128-n8:16:32:64-S128"
target triple = "x86_64-pc-linux-gnu"

%struct.strvec = type { ptr, i64, i64 }
%struct.child_process = type { %struct.strvec, %struct.strvec, i32, i32, i64, ptr, ptr, i32, i32, i32, ptr, i16, ptr }

@.str = private unnamed_addr constant [14 x i8] c"run-command.c\00", align 1
@.str.10 = private unnamed_addr constant [43 x i8] c"run_command with a pipe can cause deadlock\00", align 1

; Function Attrs: nounwind uwtable
define dso_local void @child_process_clear(ptr noundef %0) #0 {
  %2 = alloca ptr, align 8
  store ptr %0, ptr %2, align 8, !tbaa !4
  %3 = load ptr, ptr %2, align 8, !tbaa !4
  %4 = getelementptr inbounds nuw %struct.child_process, ptr %3, i32 0, i32 0
  call void @strvec_clear(ptr noundef %4)
  %5 = load ptr, ptr %2, align 8, !tbaa !4
  %6 = getelementptr inbounds nuw %struct.child_process, ptr %5, i32 0, i32 1
  call void @strvec_clear(ptr noundef %6)
  ret void
}

; Function Attrs: nounwind uwtable
define dso_local i32 @finish_command(ptr noundef %0) #0 {
  %2 = alloca ptr, align 8
  %3 = alloca i32, align 4
  store ptr %0, ptr %2, align 8, !tbaa !4
  call void @llvm.lifetime.start.p0(i64 4, ptr %3) #13
  %4 = load ptr, ptr %2, align 8, !tbaa !4
  %5 = getelementptr inbounds nuw %struct.child_process, ptr %4, i32 0, i32 2
  %6 = load i32, ptr %5, align 8, !tbaa !48
  %7 = load ptr, ptr %2, align 8, !tbaa !4
  %8 = getelementptr inbounds nuw %struct.child_process, ptr %7, i32 0, i32 0
  %9 = getelementptr inbounds nuw %struct.strvec, ptr %8, i32 0, i32 0
  %10 = load ptr, ptr %9, align 8, !tbaa !27
  %11 = getelementptr inbounds ptr, ptr %10, i64 0
  %12 = load ptr, ptr %11, align 8, !tbaa !9
  %13 = call i32 @wait_or_whine(i32 noundef %6, ptr noundef %12, i32 noundef 0)
  store i32 %13, ptr %3, align 4, !tbaa !16
  %14 = load ptr, ptr %2, align 8, !tbaa !4
  %15 = load i32, ptr %3, align 4, !tbaa !16
  call void @trace2_child_exit_fl(ptr noundef @.str, i32 noundef 990, ptr noundef %14, i32 noundef %15)
  %16 = load ptr, ptr %2, align 8, !tbaa !4
  call void @child_process_clear(ptr noundef %16)
  call void @invalidate_lstat_cache()
  %17 = load i32, ptr %3, align 4, !tbaa !16
  call void @llvm.lifetime.end.p0(i64 4, ptr %3) #13
  ret i32 %17
}

; Function Attrs: nounwind uwtable
define dso_local i32 @run_command(ptr noundef %0) #0 {
  %2 = alloca i32, align 4
  %3 = alloca ptr, align 8
  %4 = alloca i32, align 4
  %5 = alloca i32, align 4
  store ptr %0, ptr %3, align 8, !tbaa !4
  call void @llvm.lifetime.start.p0(i64 4, ptr %4) #13
  %6 = load ptr, ptr %3, align 8, !tbaa !4
  %7 = getelementptr inbounds nuw %struct.child_process, ptr %6, i32 0, i32 8
  %8 = load i32, ptr %7, align 4, !tbaa !25
  %9 = icmp slt i32 %8, 0
  br i1 %9, label %15, label %10

10:                                               ; preds = %1
  %11 = load ptr, ptr %3, align 8, !tbaa !4
  %12 = getelementptr inbounds nuw %struct.child_process, ptr %11, i32 0, i32 9
  %13 = load i32, ptr %12, align 8, !tbaa !26
  %14 = icmp slt i32 %13, 0
  br i1 %14, label %15, label %16

15:                                               ; preds = %10, %1
  call void (ptr, i32, ptr, ...) @BUG_fl(ptr noundef @.str, i32 noundef 1010, ptr noundef @.str.10) #16
  unreachable

16:                                               ; preds = %10
  %17 = load ptr, ptr %3, align 8, !tbaa !4
  %18 = call i32 @start_command(ptr noundef %17)
  store i32 %18, ptr %4, align 4, !tbaa !16
  %19 = load i32, ptr %4, align 4, !tbaa !16
  %20 = icmp ne i32 %19, 0
  br i1 %20, label %21, label %23

21:                                               ; preds = %16
  %22 = load i32, ptr %4, align 4, !tbaa !16
  store i32 %22, ptr %2, align 4
  store i32 1, ptr %5, align 4
  br label %26

23:                                               ; preds = %16
  %24 = load ptr, ptr %3, align 8, !tbaa !4
  %25 = call i32 @finish_command(ptr noundef %24)
  store i32 %25, ptr %2, align 4
  store i32 1, ptr %5, align 4
  br label %26

26:                                               ; preds = %23, %21
  call void @llvm.lifetime.end.p0(i64 4, ptr %4) #13
  %27 = load i32, ptr %2, align 4
  ret i32 %27
}