; Function Attrs: nounwind uwtable
define dso_local range(i32 -1, 256) i32 @run_command(ptr noundef %0) local_unnamed_addr #3 {
  %2 = getelementptr inbounds nuw i8, ptr %0, i64 84
  %3 = load i32, ptr %2, align 4, !tbaa !23
  %4 = icmp slt i32 %3, 0
  br i1 %4, label %9, label %5

5:                                                ; preds = %1
  %6 = getelementptr inbounds nuw i8, ptr %0, i64 88
  %7 = load i32, ptr %6, align 8, !tbaa !24
  %8 = icmp slt i32 %7, 0
  br i1 %8, label %9, label %10

9:                                                ; preds = %5, %1
  tail call void (ptr, i32, ptr, ...) @BUG_fl(ptr noundef nonnull @.str, i32 noundef 1010, ptr noundef nonnull @.str.10) #24
  unreachable

10:                                               ; preds = %5
  %11 = tail call i32 @start_command(ptr noundef nonnull %0)
  %.not = icmp eq i32 %11, 0
  br i1 %.not, label %12, label %19

12:                                               ; preds = %10
  %13 = getelementptr inbounds nuw i8, ptr %0, i64 48
  %14 = load i32, ptr %13, align 8, !tbaa !62
  %15 = load ptr, ptr %0, align 8, !tbaa !25
  %16 = load ptr, ptr %15, align 8, !tbaa !26
  %17 = tail call fastcc i32 @wait_or_whine(i32 noundef %14, ptr noundef %16, i32 noundef 0)
  tail call void @trace2_child_exit_fl(ptr noundef nonnull @.str, i32 noundef 990, ptr noundef nonnull %0, i32 noundef %17) #21
  tail call void @strvec_clear(ptr noundef nonnull %0) #21
  %18 = getelementptr inbounds nuw i8, ptr %0, i64 24
  tail call void @strvec_clear(ptr noundef nonnull %18) #21
  tail call void @invalidate_lstat_cache() #21
  br label %19

19:                                               ; preds = %10, %12
  %.0 = phi i32 [ %17, %12 ], [ -1, %10 ]
  ret i32 %.0
}